; Function Attrs: null_pointer_is_valid sspstrong uwtable
define internal i32 @dissect_ICBAAccoServer_DisconnectMe_rqst(ptr noundef %0, i32 noundef %1, ptr noundef %2, ptr noundef %3, ptr noundef %4, ptr noundef %5) #0 {
  %7 = alloca [1000 x i8], align 16
  call void @llvm.lifetime.start.p0(i64 1000, ptr nonnull %7) #12
  %8 = tail call i32 @dissect_dcom_this(ptr noundef %0, i32 noundef %1, ptr noundef %2, ptr noundef %3, ptr noundef %4, ptr noundef %5)
  %9 = getelementptr inbounds nuw i8, ptr %2, i64 184
  %10 = getelementptr inbounds nuw i8, ptr %4, i64 64
  %11 = load ptr, ptr %10, align 8
  %12 = getelementptr inbounds nuw i8, ptr %11, i64 20
  %13 = tail call ptr @dcom_interface_find(ptr noundef %2, ptr noundef nonnull %9, ptr noundef nonnull %12)
  %.not.i = icmp eq ptr %13, null
  br i1 %.not.i, label %28, label %14

14:                                               ; preds = %6
  %15 = getelementptr inbounds nuw i8, ptr %13, i64 8
  %16 = load ptr, ptr %15, align 8
  %17 = icmp eq ptr %16, null
  br i1 %17, label %18, label %cba_ldev_find.exit

18:                                               ; preds = %14
  %19 = load ptr, ptr %13, align 8
  %20 = getelementptr inbounds nuw i8, ptr %19, i64 16
  %21 = load ptr, ptr %20, align 8
  %22 = icmp eq ptr %21, null
  br i1 %22, label %23, label %cba_ldev_find.exit

23:                                               ; preds = %18
  %24 = getelementptr inbounds nuw i8, ptr %2, i64 408
  %25 = load ptr, ptr %24, align 8
  %26 = tail call ptr @address_to_str(ptr noundef %25, ptr noundef nonnull %9)
  %27 = tail call ptr (ptr, ptr, ptr, ptr, ...) @expert_add_info_format(ptr noundef %2, ptr noundef null, ptr noundef nonnull @ei_cba_acco_ldev_unknown, ptr noundef nonnull @.str.4, ptr noundef %26)
  br label %cba_ldev_find.exit

28:                                               ; preds = %6
  %29 = getelementptr inbounds nuw i8, ptr %2, i64 408
  %30 = load ptr, ptr %29, align 8
  %31 = tail call ptr @address_to_str(ptr noundef %30, ptr noundef nonnull %9)
  %32 = tail call ptr (ptr, ptr, ptr, ptr, ...) @expert_add_info_format(ptr noundef %2, ptr noundef null, ptr noundef nonnull @ei_cba_acco_ipid_unknown, ptr noundef nonnull @.str.5, ptr noundef %31)
  br label %cba_ldev_find.exit

cba_ldev_find.exit:                               ; preds = %14, %18, %23, %28
  %.1.i = phi ptr [ null, %23 ], [ %21, %18 ], [ null, %28 ], [ %16, %14 ]
  %33 = load i32, ptr @hf_cba_acco_dcom_call, align 4
  %34 = tail call ptr @proto_tree_add_boolean(ptr noundef %3, i32 noundef %33, ptr noundef %0, i32 noundef %8, i32 noundef 0, i64 noundef 1)
  %.not.i34 = icmp eq ptr %34, null
  br i1 %.not.i34, label %proto_item_set_generated.exit, label %35

35:                                               ; preds = %cba_ldev_find.exit
  %36 = getelementptr inbounds nuw i8, ptr %34, i64 40
  %37 = load ptr, ptr %36, align 8
  %.not5.i = icmp eq ptr %37, null
  br i1 %.not5.i, label %proto_item_set_generated.exit, label %38

38:                                               ; preds = %35
  %39 = getelementptr inbounds nuw i8, ptr %37, i64 28
  %40 = load i32, ptr %39, align 4
  %41 = or i32 %40, 2
  store i32 %41, ptr %39, align 4
  br label %proto_item_set_generated.exit

proto_item_set_generated.exit:                    ; preds = %cba_ldev_find.exit, %35, %38
  %42 = getelementptr inbounds nuw i8, ptr %2, i64 408
  %43 = load ptr, ptr %42, align 8
  %44 = load i32, ptr @proto_ICBAAccoMgt, align 4
  tail call void @p_add_proto_data(ptr noundef %43, ptr noundef %2, i32 noundef %44, i32 noundef 0, ptr noundef nonnull inttoptr (i64 2 to ptr))
  %45 = load i32, ptr @hf_cba_acco_conn_consumer, align 4
  %46 = call i32 @dissect_dcom_LPWSTR(ptr noundef %0, i32 noundef %8, ptr noundef %2, ptr noundef %3, ptr noundef %4, ptr noundef %5, i32 noundef %45, ptr noundef nonnull %7, i32 noundef 1000)
  %47 = call fastcc ptr @cba_acco_add(ptr noundef %2, ptr noundef nonnull %7)
  %48 = icmp ne ptr %.1.i, null
  %49 = icmp ne ptr %47, null
  %or.cond = select i1 %48, i1 %49, i1 false
  br i1 %or.cond, label %50, label %56

50:                                               ; preds = %proto_item_set_generated.exit
  %51 = call ptr @wmem_file_scope()
  %52 = call noalias dereferenceable_or_null(16) ptr @wmem_alloc(ptr noundef %51, i64 noundef 16) #10
  store ptr %47, ptr %52, align 8
  %53 = getelementptr inbounds nuw i8, ptr %52, i64 8
  store ptr %.1.i, ptr %53, align 8
  %54 = load ptr, ptr %10, align 8
  %55 = getelementptr inbounds nuw i8, ptr %54, i64 80
  store ptr %52, ptr %55, align 8
  br label %56

56:                                               ; preds = %50, %proto_item_set_generated.exit
  %57 = getelementptr inbounds nuw i8, ptr %2, i64 8
  %58 = load ptr, ptr %57, align 8
  call void (ptr, i32, ptr, ...) @col_append_fstr(ptr noundef %58, i32 noundef 25, ptr noundef nonnull @.str.319, ptr noundef nonnull %7)
  call void @llvm.lifetime.end.p0(i64 1000, ptr nonnull %7) #12
  ret i32 %46
}